Certificate:
    Data:
        Version: 3 (0x2)
        Serial Number: 3 (0x3)
        Signature Algorithm: sha1WithRSAEncryption
        Issuer: C=US, ST=CA, L=SanFrancisco, O=Fort-Funston, CN=Fort-Funston CA/emailAddress=me@myhost.mydomain
        Validity
            Not Before: Dec  5 05:22:03 2020 GMT
            Not After : Dec  3 05:22:03 2030 GMT
        Subject: C=US, ST=CA, L=SanFrancisco, O=Fort-Funston, CN=r2/emailAddress=me@myhost.mydomain
        Subject Public Key Info:
            Public Key Algorithm: rsaEncryption
            RSA Public Key: (1024 bit)
                Modulus (1024 bit):
                    00:d9:8d:26:63:13:2c:19:e8:8e:81:5b:d2:41:5f:
                    68:4d:ee:db:41:cc:be:64:62:16:66:dd:39:aa:74:
                    d3:14:b1:48:ad:8b:09:0e:d4:5b:33:61:90:ab:f8:
                    d0:b7:a1:5d:08:65:18:15:16:58:03:0a:7a:cd:1b:
                    b9:be:06:54:47:d9:51:a0:a6:be:f9:6e:42:84:61:
                    de:49:3e:80:53:d1:73:ca:32:f7:c2:2c:0d:09:8b:
                    ee:4d:78:83:7d:cb:62:95:e0:34:99:1e:ce:e1:3c:
                    b4:bf:c0:9e:6e:40:be:8f:95:db:da:5c:4e:d2:34:
                    71:e8:fa:53:18:02:3e:7f:89
                Exponent: 65537 (0x10001)
        X509v3 extensions:
            X509v3 Basic Constraints: 
                CA:FALSE
            Netscape Comment: 
                Easy-RSA Generated Certificate
            X509v3 Subject Key Identifier: 
                04:12:B1:8F:39:50:D3:E3:97:32:CE:97:A6:A5:BD:96:6F:30:31:7F
            X509v3 Authority Key Identifier: 
                keyid:23:9B:CF:45:9E:52:1B:0A:4D:75:0C:48:D1:7F:4C:A1:B2:F3:0E:13
                DirName:/C=US/ST=CA/L=SanFrancisco/O=Fort-Funston/CN=Fort-Funston CA/emailAddress=me@myhost.mydomain
                serial:9C:EF:30:5C:3E:CA:B5:10

            X509v3 Extended Key Usage: 
                TLS Web Client Authentication
            X509v3 Key Usage: 
                Digital Signature
    Signature Algorithm: sha1WithRSAEncryption
        6a:df:5d:85:4f:01:63:26:6f:85:3a:c6:cd:b7:f6:8d:1b:30:
        d1:c6:7e:d7:7e:2c:ba:d2:d2:74:0f:57:96:71:08:29:58:b3:
        c5:be:f7:f2:33:37:78:e4:9c:20:97:6d:90:4f:8f:87:0d:bd:
        ef:a8:32:07:30:fc:3e:e1:75:5f:c5:18:8c:06:39:6d:4b:25:
        2a:3d:bd:af:52:ba:7e:fe:85:03:83:c0:d9:f8:61:88:4b:34:
        f3:b0:22:65:1f:e9:c0:80:cd:e5:7a:78:69:20:14:d1:bc:15:
        8e:ec:93:ad:f6:89:eb:37:d7:48:79:74:53:9b:2e:18:61:4e:
        1b:b5
-----BEGIN CERTIFICATE-----
MIIDsjCCAxugAwIBAgIBAzANBgkqhkiG9w0BAQUFADCBhTELMAkGA1UEBhMCVVMx
CzAJBgNVBAgTAkNBMRUwEwYDVQQHEwxTYW5GcmFuY2lzY28xFTATBgNVBAoTDEZv
cnQtRnVuc3RvbjEYMBYGA1UEAxMPRm9ydC1GdW5zdG9uIENBMSEwHwYJKoZIhvcN
AQkBFhJtZUBteWhvc3QubXlkb21haW4wHhcNMjAxMjA1MDUyMjAzWhcNMzAxMjAz
MDUyMjAzWjB4MQswCQYDVQQGEwJVUzELMAkGA1UECBMCQ0ExFTATBgNVBAcTDFNh
bkZyYW5jaXNjbzEVMBMGA1UEChMMRm9ydC1GdW5zdG9uMQswCQYDVQQDEwJyMjEh
MB8GCSqGSIb3DQEJARYSbWVAbXlob3N0Lm15ZG9tYWluMIGfMA0GCSqGSIb3DQEB
AQUAA4GNADCBiQKBgQDZjSZjEywZ6I6BW9JBX2hN7ttBzL5kYhZm3TmqdNMUsUit
iwkO1FszYZCr+NC3oV0IZRgVFlgDCnrNG7m+BlRH2VGgpr75bkKEYd5JPoBT0XPK
MvfCLA0Ji+5NeIN9y2KV4DSZHs7hPLS/wJ5uQL6PldvaXE7SNHHo+lMYAj5/iQID
AQABo4IBPDCCATgwCQYDVR0TBAIwADAtBglghkgBhvhCAQ0EIBYeRWFzeS1SU0Eg
R2VuZXJhdGVkIENlcnRpZmljYXRlMB0GA1UdDgQWBBQEErGPOVDT45cyzpempb2W
bzAxfzCBugYDVR0jBIGyMIGvgBQjm89FnlIbCk11DEjRf0yhsvMOE6GBi6SBiDCB
hTELMAkGA1UEBhMCVVMxCzAJBgNVBAgTAkNBMRUwEwYDVQQHEwxTYW5GcmFuY2lz
Y28xFTATBgNVBAoTDEZvcnQtRnVuc3RvbjEYMBYGA1UEAxMPRm9ydC1GdW5zdG9u
IENBMSEwHwYJKoZIhvcNAQkBFhJtZUBteWhvc3QubXlkb21haW6CCQCc7zBcPsq1
EDATBgNVHSUEDDAKBggrBgEFBQcDAjALBgNVHQ8EBAMCB4AwDQYJKoZIhvcNAQEF
BQADgYEAat9dhU8BYyZvhTrGzbf2jRsw0cZ+134sutLSdA9XlnEIKVizxb738jM3
eOScIJdtkE+Phw2976gyBzD8PuF1X8UYjAY5bUslKj29r1K6fv6FA4PA2fhhiEs0
87AiZR/pwIDN5Xp4aSAU0bwVjuyTrfaJ6zfXSHl0U5suGGFOG7U=
-----END CERTIFICATE-----
