Certificate:
    Data:
        Version: 3 (0x2)
        Serial Number: 2 (0x2)
        Signature Algorithm: sha1WithRSAEncryption
        Issuer: C=US, ST=CA, L=SanFrancisco, O=Fort-Funston, CN=Fort-Funston CA/emailAddress=me@myhost.mydomain
        Validity
            Not Before: Dec  5 05:19:30 2020 GMT
            Not After : Dec  3 05:19:30 2030 GMT
        Subject: C=US, ST=CA, L=SanFrancisco, O=Fort-Funston, CN=ssmb/emailAddress=me@myhost.mydomain
        Subject Public Key Info:
            Public Key Algorithm: rsaEncryption
            RSA Public Key: (1024 bit)
                Modulus (1024 bit):
                    00:c4:75:ef:4b:d9:3d:45:97:e2:36:28:66:d2:56:
                    53:4d:81:12:77:fd:a2:c7:92:59:78:1d:f6:51:2d:
                    4f:14:b6:e1:f1:d7:e3:92:1a:6e:ef:4a:4d:48:9d:
                    d6:af:60:e4:37:d1:05:f6:2c:d7:2d:0f:c6:66:d7:
                    1b:7b:29:ad:c8:e2:64:10:d7:9b:ad:ba:06:60:72:
                    55:fd:e3:39:4b:09:ec:40:12:14:80:15:c7:f9:84:
                    9a:2b:95:0d:9a:a9:79:fd:45:49:89:25:ca:83:19:
                    f1:24:d6:af:6e:97:1f:9c:b0:3a:f9:5a:a3:7a:7c:
                    e9:16:a6:1c:10:bf:5a:0d:8d
                Exponent: 65537 (0x10001)
        X509v3 extensions:
            X509v3 Basic Constraints: 
                CA:FALSE
            Netscape Comment: 
                Easy-RSA Generated Certificate
            X509v3 Subject Key Identifier: 
                E8:7B:02:9C:39:6C:17:13:4B:A8:E7:0F:C1:EE:25:9E:B5:FD:F3:D2
            X509v3 Authority Key Identifier: 
                keyid:23:9B:CF:45:9E:52:1B:0A:4D:75:0C:48:D1:7F:4C:A1:B2:F3:0E:13
                DirName:/C=US/ST=CA/L=SanFrancisco/O=Fort-Funston/CN=Fort-Funston CA/emailAddress=me@myhost.mydomain
                serial:9C:EF:30:5C:3E:CA:B5:10

            X509v3 Extended Key Usage: 
                TLS Web Client Authentication
            X509v3 Key Usage: 
                Digital Signature
    Signature Algorithm: sha1WithRSAEncryption
        90:e6:8b:f2:19:36:93:81:6d:a7:b1:c0:a1:44:40:7c:8f:8e:
        4e:94:0f:d2:27:f0:95:f2:d2:ed:87:58:53:a9:0f:c9:be:2f:
        93:bb:8a:e1:19:93:6f:d3:04:18:08:7e:29:1e:36:ef:17:15:
        5e:8b:db:25:e4:d3:2c:cd:2d:f0:3e:1d:09:f5:2a:08:4b:96:
        10:3f:70:dd:ec:1d:cf:0c:3b:a0:3f:8e:09:5f:13:e4:7c:83:
        19:c5:d7:8c:b7:84:c9:ad:2e:25:61:50:3c:b3:a3:56:98:c8:
        a1:8c:ec:d7:34:ec:5d:e5:df:dc:e4:48:45:8e:e5:5f:78:29:
        81:74
-----BEGIN CERTIFICATE-----
MIIDtDCCAx2gAwIBAgIBAjANBgkqhkiG9w0BAQUFADCBhTELMAkGA1UEBhMCVVMx
CzAJBgNVBAgTAkNBMRUwEwYDVQQHEwxTYW5GcmFuY2lzY28xFTATBgNVBAoTDEZv
cnQtRnVuc3RvbjEYMBYGA1UEAxMPRm9ydC1GdW5zdG9uIENBMSEwHwYJKoZIhvcN
AQkBFhJtZUBteWhvc3QubXlkb21haW4wHhcNMjAxMjA1MDUxOTMwWhcNMzAxMjAz
MDUxOTMwWjB6MQswCQYDVQQGEwJVUzELMAkGA1UECBMCQ0ExFTATBgNVBAcTDFNh
bkZyYW5jaXNjbzEVMBMGA1UEChMMRm9ydC1GdW5zdG9uMQ0wCwYDVQQDEwRzc21i
MSEwHwYJKoZIhvcNAQkBFhJtZUBteWhvc3QubXlkb21haW4wgZ8wDQYJKoZIhvcN
AQEBBQADgY0AMIGJAoGBAMR170vZPUWX4jYoZtJWU02BEnf9oseSWXgd9lEtTxS2
4fHX45Iabu9KTUid1q9g5DfRBfYs1y0PxmbXG3sprcjiZBDXm626BmByVf3jOUsJ
7EASFIAVx/mEmiuVDZqpef1FSYklyoMZ8STWr26XH5ywOvlao3p86RamHBC/Wg2N
AgMBAAGjggE8MIIBODAJBgNVHRMEAjAAMC0GCWCGSAGG+EIBDQQgFh5FYXN5LVJT
QSBHZW5lcmF0ZWQgQ2VydGlmaWNhdGUwHQYDVR0OBBYEFOh7Apw5bBcTS6jnD8Hu
JZ61/fPSMIG6BgNVHSMEgbIwga+AFCObz0WeUhsKTXUMSNF/TKGy8w4ToYGLpIGI
MIGFMQswCQYDVQQGEwJVUzELMAkGA1UECBMCQ0ExFTATBgNVBAcTDFNhbkZyYW5j
aXNjbzEVMBMGA1UEChMMRm9ydC1GdW5zdG9uMRgwFgYDVQQDEw9Gb3J0LUZ1bnN0
b24gQ0ExITAfBgkqhkiG9w0BCQEWEm1lQG15aG9zdC5teWRvbWFpboIJAJzvMFw+
yrUQMBMGA1UdJQQMMAoGCCsGAQUFBwMCMAsGA1UdDwQEAwIHgDANBgkqhkiG9w0B
AQUFAAOBgQCQ5ovyGTaTgW2nscChREB8j45OlA/SJ/CV8tLth1hTqQ/Jvi+Tu4rh
GZNv0wQYCH4pHjbvFxVei9sl5NMszS3wPh0J9SoIS5YQP3Dd7B3PDDugP44JXxPk
fIMZxdeMt4TJrS4lYVA8s6NWmMihjOzXNOxd5d/c5EhFjuVfeCmBdA==
-----END CERTIFICATE-----
