Certificate:
    Data:
        Version: 3 (0x2)
        Serial Number: 2 (0x2)
        Signature Algorithm: sha1WithRSAEncryption
        Issuer: C=US, ST=CA, L=SanFrancisco, O=Fort-Funston, CN=Fort-Funston CA/emailAddress=me@myhost.mydomain
        Validity
            Not Before: Dec 18 00:32:42 2020 GMT
            Not After : Dec 16 00:32:42 2030 GMT
        Subject: C=US, ST=CA, L=SanFrancisco, O=Fort-Funston, CN=r2/emailAddress=me@myhost.mydomain
        Subject Public Key Info:
            Public Key Algorithm: rsaEncryption
            RSA Public Key: (1024 bit)
                Modulus (1024 bit):
                    00:ad:e3:44:55:39:0b:cd:91:71:80:65:4c:ad:5c:
                    d7:e7:89:62:1b:31:be:9b:fb:64:b7:3e:34:49:83:
                    f9:8b:b6:89:7a:23:88:27:3b:e9:07:52:fd:47:30:
                    17:cc:42:ae:57:a8:18:99:34:cc:d3:ca:bd:28:36:
                    58:48:cc:8a:c6:2d:c9:64:8f:c0:32:d6:fd:c0:9d:
                    fc:82:01:83:dc:12:ae:4e:c2:38:3c:e2:e8:61:2e:
                    f8:17:7c:ef:75:4b:12:c5:0e:57:0b:ee:bc:b2:b6:
                    ea:51:c8:4e:25:46:d0:a2:c2:e5:3e:b0:11:f2:9b:
                    c8:a9:f0:c2:19:46:89:31:25
                Exponent: 65537 (0x10001)
        X509v3 extensions:
            X509v3 Basic Constraints: 
                CA:FALSE
            Netscape Comment: 
                Easy-RSA Generated Certificate
            X509v3 Subject Key Identifier: 
                7A:E9:2C:65:94:56:AE:F5:25:94:02:FD:7C:49:01:BE:B9:7C:DF:7F
            X509v3 Authority Key Identifier: 
                keyid:35:8E:4D:CD:43:7D:E7:73:56:F0:DE:D0:FA:56:A4:0C:24:EF:B9:E2
                DirName:/C=US/ST=CA/L=SanFrancisco/O=Fort-Funston/CN=Fort-Funston CA/emailAddress=me@myhost.mydomain
                serial:92:D5:F4:55:8A:99:04:2A

            X509v3 Extended Key Usage: 
                TLS Web Client Authentication
            X509v3 Key Usage: 
                Digital Signature
    Signature Algorithm: sha1WithRSAEncryption
        15:70:2b:66:8a:68:f4:b1:83:6e:b5:45:8e:29:b2:7d:59:6e:
        24:63:8f:5c:89:e8:e9:ce:db:8c:7c:29:d6:86:a7:25:2c:8a:
        8c:d7:05:c9:96:06:b4:4f:c9:ce:3e:0b:40:1f:21:c3:ed:7a:
        e6:84:4e:4d:5e:85:48:54:d5:37:b0:06:25:02:cc:35:5e:4f:
        4b:40:81:ec:64:59:d2:13:5f:79:8f:ed:32:6f:79:7b:9c:b8:
        3a:4f:c7:e4:a9:47:fc:44:2f:ca:5e:25:df:4a:65:bc:84:af:
        a5:58:99:8b:65:23:92:68:70:1a:1c:ad:61:af:39:39:30:e2:
        53:26
-----BEGIN CERTIFICATE-----
MIIDsjCCAxugAwIBAgIBAjANBgkqhkiG9w0BAQUFADCBhTELMAkGA1UEBhMCVVMx
CzAJBgNVBAgTAkNBMRUwEwYDVQQHEwxTYW5GcmFuY2lzY28xFTATBgNVBAoTDEZv
cnQtRnVuc3RvbjEYMBYGA1UEAxMPRm9ydC1GdW5zdG9uIENBMSEwHwYJKoZIhvcN
AQkBFhJtZUBteWhvc3QubXlkb21haW4wHhcNMjAxMjE4MDAzMjQyWhcNMzAxMjE2
MDAzMjQyWjB4MQswCQYDVQQGEwJVUzELMAkGA1UECBMCQ0ExFTATBgNVBAcTDFNh
bkZyYW5jaXNjbzEVMBMGA1UEChMMRm9ydC1GdW5zdG9uMQswCQYDVQQDEwJyMjEh
MB8GCSqGSIb3DQEJARYSbWVAbXlob3N0Lm15ZG9tYWluMIGfMA0GCSqGSIb3DQEB
AQUAA4GNADCBiQKBgQCt40RVOQvNkXGAZUytXNfniWIbMb6b+2S3PjRJg/mLtol6
I4gnO+kHUv1HMBfMQq5XqBiZNMzTyr0oNlhIzIrGLclkj8Ay1v3AnfyCAYPcEq5O
wjg84uhhLvgXfO91SxLFDlcL7ryytupRyE4lRtCiwuU+sBHym8ip8MIZRokxJQID
AQABo4IBPDCCATgwCQYDVR0TBAIwADAtBglghkgBhvhCAQ0EIBYeRWFzeS1SU0Eg
R2VuZXJhdGVkIENlcnRpZmljYXRlMB0GA1UdDgQWBBR66SxllFau9SWUAv18SQG+
uXzffzCBugYDVR0jBIGyMIGvgBQ1jk3NQ33nc1bw3tD6VqQMJO+54qGBi6SBiDCB
hTELMAkGA1UEBhMCVVMxCzAJBgNVBAgTAkNBMRUwEwYDVQQHEwxTYW5GcmFuY2lz
Y28xFTATBgNVBAoTDEZvcnQtRnVuc3RvbjEYMBYGA1UEAxMPRm9ydC1GdW5zdG9u
IENBMSEwHwYJKoZIhvcNAQkBFhJtZUBteWhvc3QubXlkb21haW6CCQCS1fRVipkE
KjATBgNVHSUEDDAKBggrBgEFBQcDAjALBgNVHQ8EBAMCB4AwDQYJKoZIhvcNAQEF
BQADgYEAFXArZopo9LGDbrVFjimyfVluJGOPXIno6c7bjHwp1oanJSyKjNcFyZYG
tE/Jzj4LQB8hw+165oROTV6FSFTVN7AGJQLMNV5PS0CB7GRZ0hNfeY/tMm95e5y4
Ok/H5KlH/EQvyl4l30plvISvpViZi2UjkmhwGhytYa85OTDiUyY=
-----END CERTIFICATE-----
