Certificate:
    Data:
        Version: 3 (0x2)
        Serial Number: 4 (0x4)
        Signature Algorithm: sha1WithRSAEncryption
        Issuer: C=US, ST=CA, L=SanFrancisco, O=Fort-Funston, CN=Fort-Funston CA/emailAddress=me@myhost.mydomain
        Validity
            Not Before: Dec 18 00:33:11 2020 GMT
            Not After : Dec 16 00:33:11 2030 GMT
        Subject: C=US, ST=CA, L=SanFrancisco, O=Fort-Funston, CN=pc6/emailAddress=me@myhost.mydomain
        Subject Public Key Info:
            Public Key Algorithm: rsaEncryption
            RSA Public Key: (1024 bit)
                Modulus (1024 bit):
                    00:dc:55:35:0e:91:ed:3f:d9:48:2b:f5:2f:92:11:
                    8d:07:d8:c6:d9:c9:6b:ba:6a:04:cd:bc:ad:71:88:
                    e4:f1:a6:cb:02:a3:c5:91:2b:94:65:4f:6b:1c:78:
                    cb:81:fc:40:ab:c5:56:b5:48:3f:80:f8:41:22:6d:
                    d5:51:b8:bd:c6:8e:ba:11:36:05:eb:af:cd:a9:2d:
                    c7:b0:60:5a:6a:55:e7:70:d6:5f:4f:9e:9f:b8:32:
                    48:67:36:42:4e:fc:d9:13:78:ca:f3:3b:a9:e8:34:
                    71:bb:c3:73:cd:26:47:f4:27:eb:ab:5b:4b:97:58:
                    cf:6c:28:67:7f:94:7f:fd:cb
                Exponent: 65537 (0x10001)
        X509v3 extensions:
            X509v3 Basic Constraints: 
                CA:FALSE
            Netscape Comment: 
                Easy-RSA Generated Certificate
            X509v3 Subject Key Identifier: 
                2B:1D:59:35:BC:4A:B0:F7:DF:43:A5:36:AD:84:41:29:7D:92:A2:D2
            X509v3 Authority Key Identifier: 
                keyid:35:8E:4D:CD:43:7D:E7:73:56:F0:DE:D0:FA:56:A4:0C:24:EF:B9:E2
                DirName:/C=US/ST=CA/L=SanFrancisco/O=Fort-Funston/CN=Fort-Funston CA/emailAddress=me@myhost.mydomain
                serial:92:D5:F4:55:8A:99:04:2A

            X509v3 Extended Key Usage: 
                TLS Web Client Authentication
            X509v3 Key Usage: 
                Digital Signature
    Signature Algorithm: sha1WithRSAEncryption
        a6:17:8a:2b:01:3e:0f:30:82:5a:db:13:28:86:1e:35:93:0c:
        cd:80:57:bb:fc:45:6c:1a:2c:1f:91:06:8b:d2:a9:28:08:1a:
        98:41:e1:4b:28:84:cb:e0:02:d5:9e:2c:a1:84:4c:85:4d:7e:
        5f:04:53:ba:1b:bf:37:2a:13:48:4a:20:29:e9:2a:34:1c:dc:
        22:84:51:8c:d0:50:10:63:91:af:c4:73:d9:46:c9:62:f8:31:
        6c:2e:72:90:42:4a:09:d6:13:81:bb:81:a6:c4:31:a9:7e:ed:
        47:fa:72:b3:92:0e:06:9c:06:fb:b8:16:57:2f:98:69:ca:0d:
        19:cb
-----BEGIN CERTIFICATE-----
MIIDszCCAxygAwIBAgIBBDANBgkqhkiG9w0BAQUFADCBhTELMAkGA1UEBhMCVVMx
CzAJBgNVBAgTAkNBMRUwEwYDVQQHEwxTYW5GcmFuY2lzY28xFTATBgNVBAoTDEZv
cnQtRnVuc3RvbjEYMBYGA1UEAxMPRm9ydC1GdW5zdG9uIENBMSEwHwYJKoZIhvcN
AQkBFhJtZUBteWhvc3QubXlkb21haW4wHhcNMjAxMjE4MDAzMzExWhcNMzAxMjE2
MDAzMzExWjB5MQswCQYDVQQGEwJVUzELMAkGA1UECBMCQ0ExFTATBgNVBAcTDFNh
bkZyYW5jaXNjbzEVMBMGA1UEChMMRm9ydC1GdW5zdG9uMQwwCgYDVQQDEwNwYzYx
ITAfBgkqhkiG9w0BCQEWEm1lQG15aG9zdC5teWRvbWFpbjCBnzANBgkqhkiG9w0B
AQEFAAOBjQAwgYkCgYEA3FU1DpHtP9lIK/UvkhGNB9jG2clrumoEzbytcYjk8abL
AqPFkSuUZU9rHHjLgfxAq8VWtUg/gPhBIm3VUbi9xo66ETYF66/NqS3HsGBaalXn
cNZfT56fuDJIZzZCTvzZE3jK8zup6DRxu8NzzSZH9Cfrq1tLl1jPbChnf5R//csC
AwEAAaOCATwwggE4MAkGA1UdEwQCMAAwLQYJYIZIAYb4QgENBCAWHkVhc3ktUlNB
IEdlbmVyYXRlZCBDZXJ0aWZpY2F0ZTAdBgNVHQ4EFgQUKx1ZNbxKsPffQ6U2rYRB
KX2SotIwgboGA1UdIwSBsjCBr4AUNY5NzUN953NW8N7Q+lakDCTvueKhgYukgYgw
gYUxCzAJBgNVBAYTAlVTMQswCQYDVQQIEwJDQTEVMBMGA1UEBxMMU2FuRnJhbmNp
c2NvMRUwEwYDVQQKEwxGb3J0LUZ1bnN0b24xGDAWBgNVBAMTD0ZvcnQtRnVuc3Rv
biBDQTEhMB8GCSqGSIb3DQEJARYSbWVAbXlob3N0Lm15ZG9tYWluggkAktX0VYqZ
BCowEwYDVR0lBAwwCgYIKwYBBQUHAwIwCwYDVR0PBAQDAgeAMA0GCSqGSIb3DQEB
BQUAA4GBAKYXiisBPg8wglrbEyiGHjWTDM2AV7v8RWwaLB+RBovSqSgIGphB4Uso
hMvgAtWeLKGETIVNfl8EU7obvzcqE0hKICnpKjQc3CKEUYzQUBBjka/Ec9lGyWL4
MWwucpBCSgnWE4G7gabEMal+7Uf6crOSDgacBvu4FlcvmGnKDRnL
-----END CERTIFICATE-----
