Certificate:
    Data:
        Version: 3 (0x2)
        Serial Number: 5 (0x5)
        Signature Algorithm: sha1WithRSAEncryption
        Issuer: C=US, ST=CA, L=SanFrancisco, O=Fort-Funston, CN=Fort-Funston CA/emailAddress=me@myhost.mydomain
        Validity
            Not Before: Dec 18 00:33:23 2020 GMT
            Not After : Dec 16 00:33:23 2030 GMT
        Subject: C=US, ST=CA, L=SanFrancisco, O=Fort-Funston, CN=test/emailAddress=me@myhost.mydomain
        Subject Public Key Info:
            Public Key Algorithm: rsaEncryption
            RSA Public Key: (1024 bit)
                Modulus (1024 bit):
                    00:ad:8f:ff:9d:b3:b0:df:e8:a0:ca:e3:1b:f8:cf:
                    be:a0:22:ce:33:57:82:85:b4:a2:95:87:fa:20:33:
                    75:29:50:82:e9:a6:98:4b:3a:25:2e:ac:c6:43:f6:
                    a4:58:4b:ff:2a:cc:8d:61:17:d8:32:e5:fe:09:1e:
                    a7:10:81:47:fc:b4:bd:43:d6:1a:8e:26:90:fa:27:
                    e2:2c:6a:22:94:7f:b1:b7:49:b5:19:ca:a9:cb:b9:
                    14:91:f7:de:7a:02:71:2e:d9:72:6a:6c:70:e9:10:
                    62:95:67:60:94:5e:b8:60:34:df:64:61:e1:78:c5:
                    44:1d:7c:9e:5b:8a:70:2f:c1
                Exponent: 65537 (0x10001)
        X509v3 extensions:
            X509v3 Basic Constraints: 
                CA:FALSE
            Netscape Comment: 
                Easy-RSA Generated Certificate
            X509v3 Subject Key Identifier: 
                A9:EE:55:AB:19:09:51:5E:49:8F:06:78:3B:4A:4A:B0:82:17:BD:BC
            X509v3 Authority Key Identifier: 
                keyid:35:8E:4D:CD:43:7D:E7:73:56:F0:DE:D0:FA:56:A4:0C:24:EF:B9:E2
                DirName:/C=US/ST=CA/L=SanFrancisco/O=Fort-Funston/CN=Fort-Funston CA/emailAddress=me@myhost.mydomain
                serial:92:D5:F4:55:8A:99:04:2A

            X509v3 Extended Key Usage: 
                TLS Web Client Authentication
            X509v3 Key Usage: 
                Digital Signature
    Signature Algorithm: sha1WithRSAEncryption
        5c:07:0f:df:6f:0c:5f:5c:3e:c5:10:2c:0b:9b:22:ee:0c:25:
        49:32:df:62:e1:82:64:71:81:0b:43:33:48:f2:b5:15:38:3f:
        59:63:6d:0f:3b:f1:6d:91:d7:2f:d9:6f:96:1c:ab:94:9d:5b:
        ca:ac:24:5f:f8:96:0f:63:37:f3:5f:bc:f6:ed:1a:93:84:7c:
        14:d8:ab:d3:36:8b:58:f3:cd:43:fb:10:22:8c:c9:c8:aa:a6:
        c4:ed:33:37:0a:54:2e:f4:0e:90:8c:5d:a1:bd:92:53:0d:13:
        ac:04:11:da:f3:62:e1:7c:a5:07:46:67:85:3b:57:19:c1:51:
        bc:39
-----BEGIN CERTIFICATE-----
MIIDtDCCAx2gAwIBAgIBBTANBgkqhkiG9w0BAQUFADCBhTELMAkGA1UEBhMCVVMx
CzAJBgNVBAgTAkNBMRUwEwYDVQQHEwxTYW5GcmFuY2lzY28xFTATBgNVBAoTDEZv
cnQtRnVuc3RvbjEYMBYGA1UEAxMPRm9ydC1GdW5zdG9uIENBMSEwHwYJKoZIhvcN
AQkBFhJtZUBteWhvc3QubXlkb21haW4wHhcNMjAxMjE4MDAzMzIzWhcNMzAxMjE2
MDAzMzIzWjB6MQswCQYDVQQGEwJVUzELMAkGA1UECBMCQ0ExFTATBgNVBAcTDFNh
bkZyYW5jaXNjbzEVMBMGA1UEChMMRm9ydC1GdW5zdG9uMQ0wCwYDVQQDEwR0ZXN0
MSEwHwYJKoZIhvcNAQkBFhJtZUBteWhvc3QubXlkb21haW4wgZ8wDQYJKoZIhvcN
AQEBBQADgY0AMIGJAoGBAK2P/52zsN/ooMrjG/jPvqAizjNXgoW0opWH+iAzdSlQ
gummmEs6JS6sxkP2pFhL/yrMjWEX2DLl/gkepxCBR/y0vUPWGo4mkPon4ixqIpR/
sbdJtRnKqcu5FJH33noCcS7ZcmpscOkQYpVnYJReuGA032Rh4XjFRB18nluKcC/B
AgMBAAGjggE8MIIBODAJBgNVHRMEAjAAMC0GCWCGSAGG+EIBDQQgFh5FYXN5LVJT
QSBHZW5lcmF0ZWQgQ2VydGlmaWNhdGUwHQYDVR0OBBYEFKnuVasZCVFeSY8GeDtK
SrCCF728MIG6BgNVHSMEgbIwga+AFDWOTc1DfedzVvDe0PpWpAwk77nioYGLpIGI
MIGFMQswCQYDVQQGEwJVUzELMAkGA1UECBMCQ0ExFTATBgNVBAcTDFNhbkZyYW5j
aXNjbzEVMBMGA1UEChMMRm9ydC1GdW5zdG9uMRgwFgYDVQQDEw9Gb3J0LUZ1bnN0
b24gQ0ExITAfBgkqhkiG9w0BCQEWEm1lQG15aG9zdC5teWRvbWFpboIJAJLV9FWK
mQQqMBMGA1UdJQQMMAoGCCsGAQUFBwMCMAsGA1UdDwQEAwIHgDANBgkqhkiG9w0B
AQUFAAOBgQBcBw/fbwxfXD7FECwLmyLuDCVJMt9i4YJkcYELQzNI8rUVOD9ZY20P
O/Ftkdcv2W+WHKuUnVvKrCRf+JYPYzfzX7z27RqThHwU2KvTNotY881D+xAijMnI
qqbE7TM3ClQu9A6QjF2hvZJTDROsBBHa82LhfKUHRmeFO1cZwVG8OQ==
-----END CERTIFICATE-----
