Certificate:
    Data:
        Version: 3 (0x2)
        Serial Number: 1 (0x1)
        Signature Algorithm: sha1WithRSAEncryption
        Issuer: C=US, ST=CA, L=SanFrancisco, O=Fort-Funston, CN=Fort-Funston CA/emailAddress=me@myhost.mydomain
        Validity
            Not Before: Dec 18 00:32:25 2020 GMT
            Not After : Dec 16 00:32:25 2030 GMT
        Subject: C=US, ST=CA, L=SanFrancisco, O=Fort-Funston, CN=svpn/emailAddress=me@myhost.mydomain
        Subject Public Key Info:
            Public Key Algorithm: rsaEncryption
            RSA Public Key: (1024 bit)
                Modulus (1024 bit):
                    00:af:ce:0e:7a:21:c2:b1:53:58:1a:22:3e:cf:c6:
                    ba:b2:6c:02:c1:b8:92:0d:db:6c:db:f9:c7:6f:1b:
                    95:b2:e3:75:68:78:85:bf:e9:65:af:4b:d3:5e:cd:
                    7b:56:cd:57:ea:86:9d:bd:97:fb:3e:1e:53:8c:ae:
                    46:c8:f1:27:c5:e8:8f:b0:41:e7:ce:af:44:9a:43:
                    33:8b:6c:aa:3e:a5:34:06:03:a4:f1:4f:bc:3c:54:
                    7c:c9:d6:bf:98:1e:b4:34:76:57:d0:4b:38:c1:91:
                    f5:56:fa:0a:63:9e:c0:98:33:e2:66:ff:68:62:38:
                    47:b6:db:75:fc:90:c9:c1:f1
                Exponent: 65537 (0x10001)
        X509v3 extensions:
            X509v3 Basic Constraints: 
                CA:FALSE
            Netscape Cert Type: 
                SSL Server
            Netscape Comment: 
                Easy-RSA Generated Server Certificate
            X509v3 Subject Key Identifier: 
                64:49:DC:CD:FB:A4:02:4A:FF:5D:41:A0:73:6B:7E:94:92:03:89:3C
            X509v3 Authority Key Identifier: 
                keyid:35:8E:4D:CD:43:7D:E7:73:56:F0:DE:D0:FA:56:A4:0C:24:EF:B9:E2
                DirName:/C=US/ST=CA/L=SanFrancisco/O=Fort-Funston/CN=Fort-Funston CA/emailAddress=me@myhost.mydomain
                serial:92:D5:F4:55:8A:99:04:2A

            X509v3 Extended Key Usage: 
                TLS Web Server Authentication
            X509v3 Key Usage: 
                Digital Signature, Key Encipherment
    Signature Algorithm: sha1WithRSAEncryption
        2e:78:73:a0:c4:51:32:d5:2c:a8:42:8a:f5:fc:b1:6e:92:aa:
        b8:51:bc:96:13:0b:cb:db:1c:57:e9:54:00:c7:b5:b1:34:0d:
        de:3e:1d:d9:f2:f0:7b:2d:71:f9:6f:22:44:31:f7:68:81:ae:
        a8:8e:cb:eb:2b:45:a8:24:0b:c9:bd:04:56:7e:4d:b4:25:b4:
        81:87:84:00:cf:48:7b:0a:4c:72:0c:44:4c:2a:9c:92:02:bc:
        34:f9:bf:c3:83:bc:38:5f:c8:55:cf:0c:3d:50:b4:20:19:e2:
        ff:01:ba:45:05:80:ec:e0:28:bf:dc:b1:7d:da:46:b3:fb:4a:
        fa:37
-----BEGIN CERTIFICATE-----
MIIDzjCCAzegAwIBAgIBATANBgkqhkiG9w0BAQUFADCBhTELMAkGA1UEBhMCVVMx
CzAJBgNVBAgTAkNBMRUwEwYDVQQHEwxTYW5GcmFuY2lzY28xFTATBgNVBAoTDEZv
cnQtRnVuc3RvbjEYMBYGA1UEAxMPRm9ydC1GdW5zdG9uIENBMSEwHwYJKoZIhvcN
AQkBFhJtZUBteWhvc3QubXlkb21haW4wHhcNMjAxMjE4MDAzMjI1WhcNMzAxMjE2
MDAzMjI1WjB6MQswCQYDVQQGEwJVUzELMAkGA1UECBMCQ0ExFTATBgNVBAcTDFNh
bkZyYW5jaXNjbzEVMBMGA1UEChMMRm9ydC1GdW5zdG9uMQ0wCwYDVQQDEwRzdnBu
MSEwHwYJKoZIhvcNAQkBFhJtZUBteWhvc3QubXlkb21haW4wgZ8wDQYJKoZIhvcN
AQEBBQADgY0AMIGJAoGBAK/ODnohwrFTWBoiPs/GurJsAsG4kg3bbNv5x28blbLj
dWh4hb/pZa9L017Ne1bNV+qGnb2X+z4eU4yuRsjxJ8Xoj7BB586vRJpDM4tsqj6l
NAYDpPFPvDxUfMnWv5getDR2V9BLOMGR9Vb6CmOewJgz4mb/aGI4R7bbdfyQycHx
AgMBAAGjggFWMIIBUjAJBgNVHRMEAjAAMBEGCWCGSAGG+EIBAQQEAwIGQDA0Bglg
hkgBhvhCAQ0EJxYlRWFzeS1SU0EgR2VuZXJhdGVkIFNlcnZlciBDZXJ0aWZpY2F0
ZTAdBgNVHQ4EFgQUZEnczfukAkr/XUGgc2t+lJIDiTwwgboGA1UdIwSBsjCBr4AU
NY5NzUN953NW8N7Q+lakDCTvueKhgYukgYgwgYUxCzAJBgNVBAYTAlVTMQswCQYD
VQQIEwJDQTEVMBMGA1UEBxMMU2FuRnJhbmNpc2NvMRUwEwYDVQQKEwxGb3J0LUZ1
bnN0b24xGDAWBgNVBAMTD0ZvcnQtRnVuc3RvbiBDQTEhMB8GCSqGSIb3DQEJARYS
bWVAbXlob3N0Lm15ZG9tYWluggkAktX0VYqZBCowEwYDVR0lBAwwCgYIKwYBBQUH
AwEwCwYDVR0PBAQDAgWgMA0GCSqGSIb3DQEBBQUAA4GBAC54c6DEUTLVLKhCivX8
sW6SqrhRvJYTC8vbHFfpVADHtbE0Dd4+Hdny8HstcflvIkQx92iBrqiOy+srRagk
C8m9BFZ+TbQltIGHhADPSHsKTHIMREwqnJICvDT5v8ODvDhfyFXPDD1QtCAZ4v8B
ukUFgOzgKL/csX3aRrP7Svo3
-----END CERTIFICATE-----
